; Function Attrs: mustprogress nofree norecurse nosync nounwind willreturn memory(read, inaccessiblemem: none) uwtable
define hidden noundef zeroext i1 @_ZNK4cvc58internal3smt11SetDefaults14safeUnsatCoresERKNS0_7OptionsE(ptr nocapture noundef nonnull readnone align 8 dereferenceable(17) %this, ptr nocapture noundef nonnull readonly align 8 dereferenceable(392) %opts) local_unnamed_addr #5 align 2 {
entry:
  %smt = getelementptr inbounds i8, ptr %opts, i64 352
  %0 = load ptr, ptr %smt, align 8
  %unsatCoresMode = getelementptr inbounds i8, ptr %0, i64 180
  %1 = load i32, ptr %unsatCoresMode, align 4
  %cmp = icmp eq i32 %1, 2
  ret i1 %cmp
}